; ModuleID = '60/1396.c'
source_filename = "60/1396.c"
target datalayout = "e-m:e-p270:32:32-p271:32:32-p272:64:64-i64:64-f80:128-n8:16:32:64-S128"
target triple = "x86_64-pc-linux-gnu"

@.str = private unnamed_addr constant [3 x i8] c"%d\00", align 1
@.str.1 = private unnamed_addr constant [7 x i8] c"%d %d\0A\00", align 1
@.str.2 = private unnamed_addr constant [6 x i8] c"empty\00", align 1

; Function Attrs: noinline nounwind uwtable
define dso_local i32 @shu(i32 %0) #0 {
  %2 = alloca i32, align 4
  %3 = alloca i32, align 4
  %4 = alloca i32, align 4
  %5 = alloca i32, align 4
  store i32 %0, i32* %3, align 4
  store i32 2, i32* %4, align 4
  br label %6

6:                                                ; preds = %20, %1
  %7 = load i32, i32* %4, align 4
  %8 = sitofp i32 %7 to double
  %9 = load i32, i32* %3, align 4
  %10 = sitofp i32 %9 to double
  %11 = call double @sqrt(double %10) #3
  %12 = fcmp ole double %8, %11
  br i1 %12, label %13, label %23

13:                                               ; preds = %6
  %14 = load i32, i32* %3, align 4
  %15 = load i32, i32* %4, align 4
  %16 = srem i32 %14, %15
  %17 = icmp eq i32 %16, 0
  br i1 %17, label %18, label %19

18:                                               ; preds = %13
  store i32 0, i32* %2, align 4
  br label %24

19:                                               ; preds = %13
  br label %20

20:                                               ; preds = %19
  %21 = load i32, i32* %4, align 4
  %22 = add nsw i32 %21, 1
  store i32 %22, i32* %4, align 4
  br label %6

23:                                               ; preds = %6
  store i32 1, i32* %2, align 4
  br label %24

24:                                               ; preds = %23, %18
  %25 = load i32, i32* %2, align 4
  ret i32 %25
}

; Function Attrs: nounwind
declare dso_local double @sqrt(double) #1

; Function Attrs: noinline nounwind uwtable
define dso_local i32 @main() #0 {
  %1 = alloca i32, align 4
  %2 = alloca i32, align 4
  %3 = alloca i32, align 4
  %4 = alloca i32, align 4
  store i32 0, i32* %1, align 4
  store i32 0, i32* %4, align 4
  %5 = call i32 (i8*, ...) @__isoc99_scanf(i8* getelementptr inbounds ([3 x i8], [3 x i8]* @.str, i64 0, i64 0), i32* %2)
  store i32 3, i32* %3, align 4
  br label %6

6:                                                ; preds = %28, %0
  %7 = load i32, i32* %3, align 4
  %8 = load i32, i32* %2, align 4
  %9 = sub nsw i32 %8, 2
  %10 = icmp sle i32 %7, %9
  br i1 %10, label %11, label %31

11:                                               ; preds = %6
  %12 = load i32, i32* %3, align 4
  %13 = call i32 @shu(i32 %12)
  %14 = icmp ne i32 %13, 0
  br i1 %14, label %15, label %27

15:                                               ; preds = %11
  %16 = load i32, i32* %3, align 4
  %17 = add nsw i32 %16, 2
  %18 = call i32 @shu(i32 %17)
  %19 = icmp ne i32 %18, 0
  br i1 %19, label %20, label %27

20:                                               ; preds = %15
  %21 = load i32, i32* %3, align 4
  %22 = load i32, i32* %3, align 4
  %23 = add nsw i32 %22, 2
  %24 = call i32 (i8*, ...) @printf(i8* getelementptr inbounds ([7 x i8], [7 x i8]* @.str.1, i64 0, i64 0), i32 %21, i32 %23)
  %25 = load i32, i32* %4, align 4
  %26 = add nsw i32 %25, 1
  store i32 %26, i32* %4, align 4
  br label %27

27:                                               ; preds = %20, %15, %11
  br label %28

28:                                               ; preds = %27
  %29 = load i32, i32* %3, align 4
  %30 = add nsw i32 %29, 1
  store i32 %30, i32* %3, align 4
  br label %6

31:                                               ; preds = %6
  %32 = load i32, i32* %4, align 4
  %33 = icmp eq i32 %32, 0
  br i1 %33, label %34, label %36

34:                                               ; preds = %31
  %35 = call i32 (i8*, ...) @printf(i8* getelementptr inbounds ([6 x i8], [6 x i8]* @.str.2, i64 0, i64 0))
  br label %36

36:                                               ; preds = %34, %31
  %37 = load i32, i32* %1, align 4
  ret i32 %37
}

declare dso_local i32 @__isoc99_scanf(i8*, ...) #2

declare dso_local i32 @printf(i8*, ...) #2


!llvm.module.flags = !{!0}
!llvm.ident = !{!1}

!0 = !{i32 1, !"wchar_size", i32 4}
!1 = !{!"clang version 10.0.0-4ubuntu1 "}
